; Function Attrs: mustprogress nofree norecurse nosync nounwind memory(argmem: readwrite) uwtable
define hidden void @_ZN2cv11bioinspired17BasicRetinaFilter36_horizontalAnticausalFilter_multGainEPfjj(ptr noundef nonnull readonly align 8 captures(none) dereferenceable(168) %0, ptr noundef captures(none) %1, i32 noundef %2, i32 noundef %3) local_unnamed_addr #9 align 2 {
  %5 = icmp ult i32 %2, %3
  br i1 %5, label %.lr.ph22, label %._crit_edge23

.lr.ph22:                                         ; preds = %4
  %6 = getelementptr inbounds nuw i8, ptr %0, i64 32
  %7 = load i64, ptr %6, align 8, !tbaa !17
  %8 = trunc i64 %7 to i32
  %.not = icmp eq i32 %8, 0
  %9 = getelementptr inbounds nuw i8, ptr %0, i64 156
  %10 = getelementptr inbounds nuw i8, ptr %0, i64 164
  br i1 %.not, label %._crit_edge23, label %.lr.ph.us.preheader

.lr.ph.us.preheader:                              ; preds = %.lr.ph22
  %11 = zext i32 %2 to i64
  %12 = zext i32 %3 to i64
  br label %.lr.ph.us

.lr.ph.us:                                        ; preds = %.lr.ph.us.preheader, %._crit_edge.us
  %indvars.iv = phi i64 [ %11, %.lr.ph.us.preheader ], [ %indvars.iv.next, %._crit_edge.us ]
  %13 = trunc i64 %indvars.iv to i32
  %14 = sub i32 %3, %13
  %15 = mul i32 %14, %8
  %16 = zext i32 %15 to i64
  %17 = getelementptr inbounds nuw float, ptr %1, i64 %16
  br label %18

18:                                               ; preds = %.lr.ph.us, %18
  %.019.us = phi i32 [ 0, %.lr.ph.us ], [ %24, %18 ]
  %.01318.us = phi float [ 0.000000e+00, %.lr.ph.us ], [ %21, %18 ]
  %.pn17.us = phi ptr [ %17, %.lr.ph.us ], [ %.014.us, %18 ]
  %.014.us = getelementptr inbounds i8, ptr %.pn17.us, i64 -4
  %19 = load float, ptr %.014.us, align 4, !tbaa !11
  %20 = load float, ptr %9, align 4, !tbaa !65
  %21 = tail call float @llvm.fmuladd.f32(float %20, float %.01318.us, float %19)
  %22 = load float, ptr %10, align 4, !tbaa !83
  %23 = fmul float %22, %21
  store float %23, ptr %.014.us, align 4, !tbaa !11
  %24 = add nuw i32 %.019.us, 1
  %exitcond.not = icmp eq i32 %24, %8
  br i1 %exitcond.not, label %._crit_edge.us, label %18, !llvm.loop !115

._crit_edge.us:                                   ; preds = %18
  %indvars.iv.next = add nuw nsw i64 %indvars.iv, 1
  %exitcond26.not = icmp eq i64 %indvars.iv.next, %12
  br i1 %exitcond26.not, label %._crit_edge23, label %.lr.ph.us, !llvm.loop !116

._crit_edge23:                                    ; preds = %._crit_edge.us, %.lr.ph22, %4
  ret void
}